; Function Attrs: mustprogress nounwind uwtable
define dso_local noundef i32 @_ZN4llvm3ARM9parseArchENS_9StringRefE(ptr %0, i64 %1) local_unnamed_addr #0 {
  %3 = tail call { ptr, i64 } @_ZN4llvm3ARM20getCanonicalArchNameENS_9StringRefE(ptr %0, i64 %1) #16
  %4 = extractvalue { ptr, i64 } %3, 0
  %5 = extractvalue { ptr, i64 } %3, 1
  %6 = tail call { ptr, i64 } @_ZN4llvm3ARM14getArchSynonymENS_9StringRefE(ptr %4, i64 %5) #16
  %.fr = freeze { ptr, i64 } %6
  %7 = extractvalue { ptr, i64 } %.fr, 0
  %8 = extractvalue { ptr, i64 } %.fr, 1
  %9 = icmp eq i64 %8, 0
  %10 = sub i64 0, %8
  br i1 %9, label %_ZNK4llvm9StringRef9ends_withES0_.exit.thread, label %.split

.split:                                           ; preds = %2, %_ZNK4llvm9StringRef9ends_withES0_.exit.thread17
  %.016.idx19 = phi i64 [ %.016.add, %_ZNK4llvm9StringRef9ends_withES0_.exit.thread17 ], [ 0, %2 ]
  %.016.ptr20 = getelementptr inbounds i8, ptr @_ZN4llvm3ARML12ARMArchNamesE, i64 %.016.idx19
  %11 = getelementptr inbounds nuw i8, ptr %.016.ptr20, i64 8
  %12 = load i64, ptr %11, align 8
  %.not.i = icmp ult i64 %12, %8
  br i1 %.not.i, label %_ZNK4llvm9StringRef9ends_withES0_.exit.thread17, label %_ZNK4llvm9StringRef9ends_withES0_.exit

_ZNK4llvm9StringRef9ends_withES0_.exit:           ; preds = %.split
  %13 = load ptr, ptr %.016.ptr20, align 8
  %14 = getelementptr inbounds i8, ptr %13, i64 %12
  %15 = getelementptr inbounds i8, ptr %14, i64 %10
  %bcmp.i = tail call i32 @bcmp(ptr nonnull %15, ptr %7, i64 %8)
  %16 = icmp eq i32 %bcmp.i, 0
  br i1 %16, label %_ZNK4llvm9StringRef9ends_withES0_.exit.thread, label %_ZNK4llvm9StringRef9ends_withES0_.exit.thread17

_ZNK4llvm9StringRef9ends_withES0_.exit.thread:    ; preds = %_ZNK4llvm9StringRef9ends_withES0_.exit, %2
  %17 = phi i64 [ 0, %2 ], [ %.016.idx19, %_ZNK4llvm9StringRef9ends_withES0_.exit ]
  %18 = getelementptr inbounds i8, ptr @_ZN4llvm3ARML12ARMArchNamesE, i64 %17
  %19 = getelementptr inbounds nuw i8, ptr %18, i64 64
  %20 = load i32, ptr %19, align 8
  br label %.loopexit

_ZNK4llvm9StringRef9ends_withES0_.exit.thread17:  ; preds = %.split, %_ZNK4llvm9StringRef9ends_withES0_.exit
  %.016.add = add nuw nsw i64 %.016.idx19, 72
  %.not = icmp eq i64 %.016.add, 2952
  br i1 %.not, label %.loopexit, label %.split

.loopexit:                                        ; preds = %_ZNK4llvm9StringRef9ends_withES0_.exit.thread17, %_ZNK4llvm9StringRef9ends_withES0_.exit.thread
  %.0 = phi i32 [ %20, %_ZNK4llvm9StringRef9ends_withES0_.exit.thread ], [ 0, %_ZNK4llvm9StringRef9ends_withES0_.exit.thread17 ]
  ret i32 %.0
}